target datalayout = "e-m:e-p270:32:32-p271:32:32-p272:64:64-i64:64-i128:128-f80:128-n8:16:32:64-S128"
target triple = "x86_64-pc-linux-gnu"

%struct.H5T_t = type { %struct.H5O_shared_t, ptr, %struct.H5O_loc_t, %struct.H5G_name_t, ptr }
%struct.H5O_shared_t = type { i32, ptr, i32, %union.anon }
%union.anon = type { %struct.H5O_mesg_loc_t }
%struct.H5O_mesg_loc_t = type { i32, i64 }
%struct.H5O_loc_t = type { ptr, i64, i8 }
%struct.H5G_name_t = type { ptr, ptr, i32 }
%struct.H5T_shared_t = type { i64, i32, i32, i64, i32, i8, ptr, ptr, %union.anon.0 }
%union.anon.0 = type { %struct.H5T_array_t }
%struct.H5T_array_t = type { i64, i32, [32 x i64] }

@H5_libterm_g = external global i8, align 1
@.str = private unnamed_addr constant [103 x i8] c"generated/home/dtcxzyw/WorkSpace/Projects/compilers/llvm-opt-benchmark/bench/hdf5/hdf5/src/H5Tcommit.c\00", align 1
@H5E_FUNC_g = external global i64, align 8
@H5E_CANTINIT_g = external global i64, align 8
@H5T_init_g = external global i8, align 1
@.str.2 = private unnamed_addr constant [32 x i8] c"interface initialization failed\00", align 1
@H5E_DATATYPE_g = external global i64, align 8
@H5E_ARGS_g = external global i64, align 8
@H5E_BADTYPE_g = external global i64, align 8
@H5E_CANTDEC_g = external global i64, align 8
@.str.80 = private unnamed_addr constant [35 x i8] c"tid is not not a named datatype ID\00", align 1
@__func__.H5T_restore_refresh_state = private unnamed_addr constant [26 x i8] c"H5T_restore_refresh_state\00", align 1
@.str.81 = private unnamed_addr constant [22 x i8] c"tid not a datatype ID\00", align 1
@.str.82 = private unnamed_addr constant [29 x i8] c"can't decrement object count\00", align 1

; Function Attrs: nounwind uwtable
define ptr @H5T_get_actual_type(ptr noundef %0) #0 {
  %2 = alloca ptr, align 8
  %3 = alloca ptr, align 8
  store ptr %0, ptr %2, align 8, !tbaa !21
  call void @llvm.lifetime.start.p0(i64 8, ptr %3) #7
  store ptr null, ptr %3, align 8, !tbaa !21
  %4 = load i8, ptr @H5T_init_g, align 1, !tbaa !12, !range !14, !noundef !15
  %5 = trunc i8 %4 to i1
  br i1 %5, label %10, label %6

6:                                                ; preds = %1
  %7 = load i8, ptr @H5_libterm_g, align 1, !tbaa !12, !range !14, !noundef !15
  %8 = trunc i8 %7 to i1
  %9 = xor i1 %8, true
  br label %10

10:                                               ; preds = %6, %1
  %11 = phi i1 [ true, %1 ], [ %9, %6 ]
  %12 = xor i1 %11, true
  %13 = xor i1 %12, true
  %14 = zext i1 %13 to i32
  %15 = sext i32 %14 to i64
  %16 = call i64 @llvm.expect.i64(i64 %15, i64 1)
  %17 = icmp ne i64 %16, 0
  br i1 %17, label %18, label %31

18:                                               ; preds = %10
  %19 = load ptr, ptr %2, align 8, !tbaa !21
  %20 = getelementptr inbounds nuw %struct.H5T_t, ptr %19, i32 0, i32 4
  %21 = load ptr, ptr %20, align 8, !tbaa !24
  %22 = icmp eq ptr null, %21
  br i1 %22, label %23, label %25

23:                                               ; preds = %18
  %24 = load ptr, ptr %2, align 8, !tbaa !21
  store ptr %24, ptr %3, align 8, !tbaa !21
  br label %30

25:                                               ; preds = %18
  %26 = load ptr, ptr %2, align 8, !tbaa !21
  %27 = getelementptr inbounds nuw %struct.H5T_t, ptr %26, i32 0, i32 4
  %28 = load ptr, ptr %27, align 8, !tbaa !24
  %29 = call ptr @H5VL_object_data(ptr noundef %28)
  store ptr %29, ptr %3, align 8, !tbaa !21
  br label %30

30:                                               ; preds = %25, %23
  br label %31

31:                                               ; preds = %30, %10
  %32 = load ptr, ptr %3, align 8, !tbaa !21
  call void @llvm.lifetime.end.p0(i64 8, ptr %3) #7
  ret ptr %32
}

; Function Attrs: nounwind uwtable
define i32 @H5T_restore_refresh_state(i64 noundef %0, ptr noundef %1) #0 {
  %3 = alloca i64, align 8
  %4 = alloca ptr, align 8
  %5 = alloca ptr, align 8
  %6 = alloca ptr, align 8
  %7 = alloca i32, align 4
  %8 = alloca i8, align 1
  store i64 %0, ptr %3, align 8, !tbaa !3
  store ptr %1, ptr %4, align 8, !tbaa !72
  call void @llvm.lifetime.start.p0(i64 8, ptr %5) #7
  store ptr null, ptr %5, align 8, !tbaa !21
  call void @llvm.lifetime.start.p0(i64 8, ptr %6) #7
  store ptr null, ptr %6, align 8, !tbaa !21
  call void @llvm.lifetime.start.p0(i64 4, ptr %7) #7
  store i32 0, ptr %7, align 4, !tbaa !10
  call void @llvm.lifetime.start.p0(i64 1, ptr %8) #7
  store i8 0, ptr %8, align 1, !tbaa !12
  %9 = load i8, ptr @H5T_init_g, align 1, !tbaa !12, !range !14, !noundef !15
  %10 = trunc i8 %9 to i1
  br i1 %10, label %15, label %11

11:                                               ; preds = %2
  %12 = load i8, ptr @H5_libterm_g, align 1, !tbaa !12, !range !14, !noundef !15
  %13 = trunc i8 %12 to i1
  %14 = xor i1 %13, true
  br label %15

15:                                               ; preds = %11, %2
  %16 = phi i1 [ false, %2 ], [ %14, %11 ]
  %17 = xor i1 %16, true
  %18 = xor i1 %17, true
  %19 = zext i1 %18 to i32
  %20 = sext i32 %19 to i64
  %21 = call i64 @llvm.expect.i64(i64 %20, i64 0)
  %22 = icmp ne i64 %21, 0
  br i1 %22, label %23, label %46

23:                                               ; preds = %15
  store i8 1, ptr @H5T_init_g, align 1, !tbaa !12
  %24 = call i32 @H5T__init_package()
  %25 = icmp slt i32 %24, 0
  br i1 %25, label %26, label %45

26:                                               ; preds = %23
  store i8 0, ptr @H5T_init_g, align 1, !tbaa !12
  br label %27

27:                                               ; preds = %26
  br label %28

28:                                               ; preds = %27
  br label %29

29:                                               ; preds = %28
  %30 = load i64, ptr @H5E_FUNC_g, align 8, !tbaa !3
  %31 = load i64, ptr @H5E_CANTINIT_g, align 8, !tbaa !3
  %32 = call i32 (ptr, ptr, i32, i64, i64, ptr, ...) @H5E_printf_stack(ptr noundef @.str, ptr noundef @__func__.H5T_restore_refresh_state, i32 noundef 1400, i64 noundef %30, i64 noundef %31, ptr noundef @.str.2)
  br label %33

33:                                               ; preds = %29
  br label %34

34:                                               ; preds = %33
  store i8 1, ptr %8, align 1, !tbaa !12
  %35 = load i8, ptr %8, align 1, !tbaa !12, !range !14, !noundef !15
  %36 = trunc i8 %35 to i1
  %37 = zext i1 %36 to i8
  store i8 %37, ptr %8, align 1, !tbaa !12
  br label %38

38:                                               ; preds = %34
  br label %39

39:                                               ; preds = %38
  br label %40

40:                                               ; preds = %39
  store i32 -1, ptr %7, align 4, !tbaa !10
  br label %149

41:                                               ; No predecessors!
  br label %42

42:                                               ; preds = %41
  br label %43

43:                                               ; preds = %42
  br label %44

44:                                               ; preds = %43
  br label %45

45:                                               ; preds = %44, %23
  br label %46

46:                                               ; preds = %45, %15
  %47 = load i8, ptr @H5T_init_g, align 1, !tbaa !12, !range !14, !noundef !15
  %48 = trunc i8 %47 to i1
  br i1 %48, label %53, label %49

49:                                               ; preds = %46
  %50 = load i8, ptr @H5_libterm_g, align 1, !tbaa !12, !range !14, !noundef !15
  %51 = trunc i8 %50 to i1
  %52 = xor i1 %51, true
  br label %53

53:                                               ; preds = %49, %46
  %54 = phi i1 [ true, %46 ], [ %52, %49 ]
  %55 = xor i1 %54, true
  %56 = xor i1 %55, true
  %57 = zext i1 %56 to i32
  %58 = sext i32 %57 to i64
  %59 = call i64 @llvm.expect.i64(i64 %58, i64 1)
  %60 = icmp ne i64 %59, 0
  br i1 %60, label %61, label %150

61:                                               ; preds = %53
  %62 = load i64, ptr %3, align 8, !tbaa !3
  %63 = call ptr @H5I_object_verify(i64 noundef %62, i32 noundef 3)
  store ptr %63, ptr %5, align 8, !tbaa !21
  %64 = icmp eq ptr null, %63
  br i1 %64, label %65, label %84

65:                                               ; preds = %61
  br label %66

66:                                               ; preds = %65
  br label %67

67:                                               ; preds = %66
  br label %68

68:                                               ; preds = %67
  %69 = load i64, ptr @H5E_ARGS_g, align 8, !tbaa !3
  %70 = load i64, ptr @H5E_BADTYPE_g, align 8, !tbaa !3
  %71 = call i32 (ptr, ptr, i32, i64, i64, ptr, ...) @H5E_printf_stack(ptr noundef @.str, ptr noundef @__func__.H5T_restore_refresh_state, i32 noundef 1405, i64 noundef %69, i64 noundef %70, ptr noundef @.str.81)
  br label %72

72:                                               ; preds = %68
  br label %73

73:                                               ; preds = %72
  store i8 1, ptr %8, align 1, !tbaa !12
  %74 = load i8, ptr %8, align 1, !tbaa !12, !range !14, !noundef !15
  %75 = trunc i8 %74 to i1
  %76 = zext i1 %75 to i8
  store i8 %76, ptr %8, align 1, !tbaa !12
  br label %77

77:                                               ; preds = %73
  br label %78

78:                                               ; preds = %77
  br label %79

79:                                               ; preds = %78
  store i32 -1, ptr %7, align 4, !tbaa !10
  br label %149

80:                                               ; No predecessors!
  br label %81

81:                                               ; preds = %80
  br label %82

82:                                               ; preds = %81
  br label %83

83:                                               ; preds = %82
  br label %84

84:                                               ; preds = %83, %61
  %85 = load ptr, ptr %5, align 8, !tbaa !21
  %86 = call ptr @H5T_get_actual_type(ptr noundef %85)
  store ptr %86, ptr %6, align 8, !tbaa !21
  %87 = load ptr, ptr %6, align 8, !tbaa !21
  %88 = icmp eq ptr null, %87
  br i1 %88, label %89, label %108

89:                                               ; preds = %84
  br label %90

90:                                               ; preds = %89
  br label %91

91:                                               ; preds = %90
  br label %92

92:                                               ; preds = %91
  %93 = load i64, ptr @H5E_ARGS_g, align 8, !tbaa !3
  %94 = load i64, ptr @H5E_BADTYPE_g, align 8, !tbaa !3
  %95 = call i32 (ptr, ptr, i32, i64, i64, ptr, ...) @H5E_printf_stack(ptr noundef @.str, ptr noundef @__func__.H5T_restore_refresh_state, i32 noundef 1408, i64 noundef %93, i64 noundef %94, ptr noundef @.str.80)
  br label %96

96:                                               ; preds = %92
  br label %97

97:                                               ; preds = %96
  store i8 1, ptr %8, align 1, !tbaa !12
  %98 = load i8, ptr %8, align 1, !tbaa !12, !range !14, !noundef !15
  %99 = trunc i8 %98 to i1
  %100 = zext i1 %99 to i8
  store i8 %100, ptr %8, align 1, !tbaa !12
  br label %101

101:                                              ; preds = %97
  br label %102

102:                                              ; preds = %101
  br label %103

103:                                              ; preds = %102
  store i32 -1, ptr %7, align 4, !tbaa !10
  br label %149

104:                                              ; No predecessors!
  br label %105

105:                                              ; preds = %104
  br label %106

106:                                              ; preds = %105
  br label %107

107:                                              ; preds = %106
  br label %108

108:                                              ; preds = %107, %84
  %109 = load ptr, ptr %6, align 8, !tbaa !21
  %110 = getelementptr inbounds nuw %struct.H5T_t, ptr %109, i32 0, i32 0
  %111 = load ptr, ptr %4, align 8, !tbaa !72
  call void @llvm.memcpy.p0.p0.i64(ptr align 8 %110, ptr align 8 %111, i64 40, i1 false)
  %112 = load ptr, ptr %6, align 8, !tbaa !21
  %113 = getelementptr inbounds nuw %struct.H5T_t, ptr %112, i32 0, i32 0
  %114 = getelementptr inbounds nuw %struct.H5O_shared_t, ptr %113, i32 0, i32 1
  %115 = load ptr, ptr %114, align 8, !tbaa !45
  %116 = load ptr, ptr %6, align 8, !tbaa !21
  %117 = getelementptr inbounds nuw %struct.H5T_t, ptr %116, i32 0, i32 0
  %118 = getelementptr inbounds nuw %struct.H5O_shared_t, ptr %117, i32 0, i32 3
  %119 = getelementptr inbounds nuw %struct.H5O_mesg_loc_t, ptr %118, i32 0, i32 1
  %120 = load i64, ptr %119, align 8, !tbaa !23
  %121 = call i32 @H5FO_top_decr(ptr noundef %115, i64 noundef %120)
  %122 = icmp slt i32 %121, 0
  br i1 %122, label %123, label %142

123:                                              ; preds = %108
  br label %124

124:                                              ; preds = %123
  br label %125

125:                                              ; preds = %124
  br label %126

126:                                              ; preds = %125
  %127 = load i64, ptr @H5E_DATATYPE_g, align 8, !tbaa !3
  %128 = load i64, ptr @H5E_CANTDEC_g, align 8, !tbaa !3
  %129 = call i32 (ptr, ptr, i32, i64, i64, ptr, ...) @H5E_printf_stack(ptr noundef @.str, ptr noundef @__func__.H5T_restore_refresh_state, i32 noundef 1415, i64 noundef %127, i64 noundef %128, ptr noundef @.str.82)
  br label %130

130:                                              ; preds = %126
  br label %131

131:                                              ; preds = %130
  store i8 1, ptr %8, align 1, !tbaa !12
  %132 = load i8, ptr %8, align 1, !tbaa !12, !range !14, !noundef !15
  %133 = trunc i8 %132 to i1
  %134 = zext i1 %133 to i8
  store i8 %134, ptr %8, align 1, !tbaa !12
  br label %135

135:                                              ; preds = %131
  br label %136

136:                                              ; preds = %135
  br label %137

137:                                              ; preds = %136
  store i32 -1, ptr %7, align 4, !tbaa !10
  br label %149

138:                                              ; No predecessors!
  br label %139

139:                                              ; preds = %138
  br label %140

140:                                              ; preds = %139
  br label %141

141:                                              ; preds = %140
  br label %142

142:                                              ; preds = %141, %108
  %143 = load ptr, ptr %6, align 8, !tbaa !21
  %144 = getelementptr inbounds nuw %struct.H5T_t, ptr %143, i32 0, i32 1
  %145 = load ptr, ptr %144, align 8, !tbaa !34
  %146 = getelementptr inbounds nuw %struct.H5T_shared_t, ptr %145, i32 0, i32 0
  %147 = load i64, ptr %146, align 8, !tbaa !54
  %148 = sub i64 %147, 1
  store i64 %148, ptr %146, align 8, !tbaa !54
  br label %149

149:                                              ; preds = %142, %137, %103, %79, %40
  br label %150

150:                                              ; preds = %149, %53
  %151 = load i32, ptr %7, align 4, !tbaa !10
  call void @llvm.lifetime.end.p0(i64 1, ptr %8) #7
  call void @llvm.lifetime.end.p0(i64 4, ptr %7) #7
  call void @llvm.lifetime.end.p0(i64 8, ptr %6) #7
  call void @llvm.lifetime.end.p0(i64 8, ptr %5) #7
  ret i32 %151
}