; Function Attrs: nounwind uwtable
define range(i32 -1, 1) i32 @H5T_restore_refresh_state(i64 noundef %0, ptr noundef readonly captures(none) %1) local_unnamed_addr #0 {
  %3 = load i8, ptr @H5T_init_g, align 1, !tbaa !3, !range !7, !noundef !8
  %4 = trunc nuw i8 %3 to i1
  %5 = load i8, ptr @H5_libterm_g, align 1, !range !7
  %6 = trunc nuw i8 %5 to i1
  %7 = select i1 %4, i1 true, i1 %6
  br i1 %7, label %15, label %8, !prof !9

8:                                                ; preds = %2
  store i8 1, ptr @H5T_init_g, align 1, !tbaa !3
  %9 = tail call i32 @H5T__init_package() #9
  %10 = icmp slt i32 %9, 0
  br i1 %10, label %11, label %._crit_edge

._crit_edge:                                      ; preds = %8
  %.pre = load i8, ptr @H5T_init_g, align 1, !tbaa !3, !range !7
  %.pre18 = load i8, ptr @H5_libterm_g, align 1, !range !7
  %.pre19 = trunc nuw i8 %.pre to i1
  %.pre20 = trunc nuw i8 %.pre18 to i1
  br label %15

11:                                               ; preds = %8
  store i8 0, ptr @H5T_init_g, align 1, !tbaa !3
  %12 = load i64, ptr @H5E_FUNC_g, align 8, !tbaa !11
  %13 = load i64, ptr @H5E_CANTINIT_g, align 8, !tbaa !11
  %14 = tail call i32 (ptr, ptr, i32, i64, i64, ptr, ...) @H5E_printf_stack(ptr noundef nonnull @.str, ptr noundef nonnull @__func__.H5T_restore_refresh_state, i32 noundef 1400, i64 noundef %12, i64 noundef %13, ptr noundef nonnull @.str.2) #9
  br label %56

15:                                               ; preds = %._crit_edge, %2
  %.pre-phi21 = phi i1 [ %.pre20, %._crit_edge ], [ %6, %2 ]
  %.pre-phi = phi i1 [ %.pre19, %._crit_edge ], [ %4, %2 ]
  %16 = xor i1 %.pre-phi21, true
  %17 = select i1 %.pre-phi, i1 true, i1 %16
  br i1 %17, label %18, label %56, !prof !9

18:                                               ; preds = %15
  %19 = tail call ptr @H5I_object_verify(i64 noundef %0, i32 noundef 3) #9
  %20 = icmp eq ptr %19, null
  br i1 %20, label %21, label %25

21:                                               ; preds = %18
  %22 = load i64, ptr @H5E_ARGS_g, align 8, !tbaa !11
  %23 = load i64, ptr @H5E_BADTYPE_g, align 8, !tbaa !11
  %24 = tail call i32 (ptr, ptr, i32, i64, i64, ptr, ...) @H5E_printf_stack(ptr noundef nonnull @.str, ptr noundef nonnull @__func__.H5T_restore_refresh_state, i32 noundef 1405, i64 noundef %22, i64 noundef %23, ptr noundef nonnull @.str.81) #9
  br label %56

25:                                               ; preds = %18
  %26 = load i8, ptr @H5T_init_g, align 1, !tbaa !3, !range !7, !noundef !8
  %27 = trunc nuw i8 %26 to i1
  %28 = load i8, ptr @H5_libterm_g, align 1, !range !7
  %29 = trunc nuw i8 %28 to i1
  %30 = xor i1 %29, true
  %31 = select i1 %27, i1 true, i1 %30
  br i1 %31, label %32, label %H5T_get_actual_type.exit.thread, !prof !9

32:                                               ; preds = %25
  %33 = getelementptr inbounds nuw i8, ptr %19, i64 96
  %34 = load ptr, ptr %33, align 8, !tbaa !19
  %35 = icmp eq ptr %34, null
  br i1 %35, label %H5T_get_actual_type.exit.thread15, label %H5T_get_actual_type.exit

H5T_get_actual_type.exit:                         ; preds = %32
  %36 = tail call ptr @H5VL_object_data(ptr noundef nonnull %34) #9
  %37 = icmp eq ptr %36, null
  br i1 %37, label %H5T_get_actual_type.exit.thread, label %H5T_get_actual_type.exit.thread15

H5T_get_actual_type.exit.thread:                  ; preds = %25, %H5T_get_actual_type.exit
  %38 = load i64, ptr @H5E_ARGS_g, align 8, !tbaa !11
  %39 = load i64, ptr @H5E_BADTYPE_g, align 8, !tbaa !11
  %40 = tail call i32 (ptr, ptr, i32, i64, i64, ptr, ...) @H5E_printf_stack(ptr noundef nonnull @.str, ptr noundef nonnull @__func__.H5T_restore_refresh_state, i32 noundef 1408, i64 noundef %38, i64 noundef %39, ptr noundef nonnull @.str.80) #9
  br label %56

H5T_get_actual_type.exit.thread15:                ; preds = %32, %H5T_get_actual_type.exit
  %.0.i17 = phi ptr [ %36, %H5T_get_actual_type.exit ], [ %19, %32 ]
  tail call void @llvm.memcpy.p0.p0.i64(ptr noundef nonnull align 8 dereferenceable(40) %.0.i17, ptr noundef nonnull align 8 dereferenceable(40) %1, i64 40, i1 false)
  %41 = getelementptr inbounds nuw i8, ptr %.0.i17, i64 8
  %42 = load ptr, ptr %41, align 8, !tbaa !41
  %43 = getelementptr inbounds nuw i8, ptr %.0.i17, i64 32
  %44 = load i64, ptr %43, align 8, !tbaa !18
  %45 = tail call i32 @H5FO_top_decr(ptr noundef %42, i64 noundef %44) #9
  %46 = icmp slt i32 %45, 0
  br i1 %46, label %47, label %51

47:                                               ; preds = %H5T_get_actual_type.exit.thread15
  %48 = load i64, ptr @H5E_DATATYPE_g, align 8, !tbaa !11
  %49 = load i64, ptr @H5E_CANTDEC_g, align 8, !tbaa !11
  %50 = tail call i32 (ptr, ptr, i32, i64, i64, ptr, ...) @H5E_printf_stack(ptr noundef nonnull @.str, ptr noundef nonnull @__func__.H5T_restore_refresh_state, i32 noundef 1415, i64 noundef %48, i64 noundef %49, ptr noundef nonnull @.str.82) #9
  br label %56

51:                                               ; preds = %H5T_get_actual_type.exit.thread15
  %52 = getelementptr inbounds nuw i8, ptr %.0.i17, i64 40
  %53 = load ptr, ptr %52, align 8, !tbaa !29
  %54 = load i64, ptr %53, align 8, !tbaa !49
  %55 = add i64 %54, -1
  store i64 %55, ptr %53, align 8, !tbaa !49
  br label %56

56:                                               ; preds = %11, %21, %H5T_get_actual_type.exit.thread, %47, %51, %15
  %.0 = phi i32 [ -1, %11 ], [ -1, %21 ], [ -1, %H5T_get_actual_type.exit.thread ], [ -1, %47 ], [ 0, %51 ], [ 0, %15 ]
  ret i32 %.0
}